target datalayout = "e-m:e-p270:32:32-p271:32:32-p272:64:64-i64:64-i128:128-f80:128-n8:16:32:64-S128"
target triple = "x86_64-unknown-linux-gnu"

%"class.std::__shared_count" = type { ptr }
%"class.std::shared_ptr.3" = type { %"class.std::__shared_ptr.4" }
%"class.std::__shared_ptr.4" = type { ptr, %"class.std::__shared_count" }
%"class.facebook::velox::BaseVector.base" = type <{ ptr, %"class.std::shared_ptr.0", i8, [3 x i8], i32, %"class.boost::intrusive_ptr", ptr, ptr, i32, %"class.std::optional", %"class.std::optional", %"class.std::optional", %"class.std::optional", i32, i8, i8, i8 }>
%"class.std::shared_ptr.0" = type { %"class.std::__shared_ptr.1" }
%"class.std::__shared_ptr.1" = type { ptr, %"class.std::__shared_count" }
%"class.boost::intrusive_ptr" = type { ptr }
%"class.std::optional" = type { %"struct.std::_Optional_base" }
%"struct.std::_Optional_base" = type { %"struct.std::_Optional_payload" }
%"struct.std::_Optional_payload" = type { %"struct.std::_Optional_payload_base.base", [3 x i8] }
%"struct.std::_Optional_payload_base.base" = type <{ %"union.std::_Optional_payload_base<int>::_Storage", i8 }>
%"union.std::_Optional_payload_base<int>::_Storage" = type { i32 }
%"class.facebook::velox::BaseVector" = type <{ ptr, %"class.std::shared_ptr.0", i8, [3 x i8], i32, %"class.boost::intrusive_ptr", ptr, ptr, i32, %"class.std::optional", %"class.std::optional", %"class.std::optional", %"class.std::optional", i32, i8, i8, i8, [5 x i8] }>
%"class.facebook::velox::Buffer" = type { ptr, ptr, ptr, i64, i64, %"struct.std::atomic", i8, [2 x i64] }
%"struct.std::atomic" = type { %"struct.std::__atomic_base" }
%"struct.std::__atomic_base" = type { i32 }
%"struct.facebook::velox::ArrayVectorBase" = type { %"class.facebook::velox::BaseVector.base", %"class.boost::intrusive_ptr", ptr, %"class.boost::intrusive_ptr", ptr }
%"class.facebook::velox::ArrayVector" = type { %"struct.facebook::velox::ArrayVectorBase", %"class.std::shared_ptr.3" }

; Function Attrs: mustprogress nounwind uwtable
define linkonce_odr noundef ptr @_ZNKSt12__shared_ptrIN8facebook5velox10BaseVectorELN9__gnu_cxx12_Lock_policyE2EE3getEv(ptr noundef nonnull align 8 dereferenceable(16) %this) #3 comdat align 2 {
entry:
  %this.addr = alloca ptr, align 8
  store ptr %this, ptr %this.addr, align 8
  %this1 = load ptr, ptr %this.addr, align 8
  %_M_ptr = getelementptr inbounds %"class.std::__shared_ptr.4", ptr %this1, i32 0, i32 0
  %0 = load ptr, ptr %_M_ptr, align 8
  ret ptr %0
}

; Function Attrs: mustprogress nounwind uwtable
define linkonce_odr noundef ptr @_ZNKSt19__shared_ptr_accessIN8facebook5velox10BaseVectorELN9__gnu_cxx12_Lock_policyE2ELb0ELb0EE6_M_getEv(ptr noundef nonnull align 1 dereferenceable(1) %this) #3 comdat align 2 {
entry:
  %this.addr = alloca ptr, align 8
  store ptr %this, ptr %this.addr, align 8
  %this1 = load ptr, ptr %this.addr, align 8
  %call = call noundef ptr @_ZNKSt12__shared_ptrIN8facebook5velox10BaseVectorELN9__gnu_cxx12_Lock_policyE2EE3getEv(ptr noundef nonnull align 8 dereferenceable(16) %this1) #18
  ret ptr %call
}

; Function Attrs: mustprogress nounwind uwtable
define linkonce_odr noundef zeroext i1 @_ZNK5boost13intrusive_ptrIN8facebook5velox6BufferEEcvbEv(ptr noundef nonnull align 8 dereferenceable(8) %this) #3 comdat align 2 {
entry:
  %this.addr = alloca ptr, align 8
  store ptr %this, ptr %this.addr, align 8
  %this1 = load ptr, ptr %this.addr, align 8
  %px = getelementptr inbounds %"class.boost::intrusive_ptr", ptr %this1, i32 0, i32 0
  %0 = load ptr, ptr %px, align 8
  %cmp = icmp ne ptr %0, null
  ret i1 %cmp
}

; Function Attrs: mustprogress nounwind uwtable
define linkonce_odr noundef ptr @_ZNKSt19__shared_ptr_accessIN8facebook5velox10BaseVectorELN9__gnu_cxx12_Lock_policyE2ELb0ELb0EEptEv(ptr noundef nonnull align 1 dereferenceable(1) %this) #3 comdat align 2 {
entry:
  %this.addr = alloca ptr, align 8
  store ptr %this, ptr %this.addr, align 8
  %this1 = load ptr, ptr %this.addr, align 8
  %call = call noundef ptr @_ZNKSt19__shared_ptr_accessIN8facebook5velox10BaseVectorELN9__gnu_cxx12_Lock_policyE2ELb0ELb0EE6_M_getEv(ptr noundef nonnull align 1 dereferenceable(1) %this1) #18
  ret ptr %call
}

; Function Attrs: mustprogress nounwind uwtable
define linkonce_odr noundef i64 @_ZNK8facebook5velox6Buffer8capacityEv(ptr noundef nonnull align 8 dereferenceable(64) %this) #3 comdat align 2 {
entry:
  %this.addr = alloca ptr, align 8
  store ptr %this, ptr %this.addr, align 8
  %this1 = load ptr, ptr %this.addr, align 8
  %capacity_ = getelementptr inbounds %"class.facebook::velox::Buffer", ptr %this1, i32 0, i32 4
  %0 = load i64, ptr %capacity_, align 8
  ret i64 %0
}

; Function Attrs: mustprogress nounwind uwtable
define linkonce_odr noundef ptr @_ZNK5boost13intrusive_ptrIN8facebook5velox6BufferEEptEv(ptr noundef nonnull align 8 dereferenceable(8) %this) #3 comdat align 2 {
entry:
  %this.addr = alloca ptr, align 8
  store ptr %this, ptr %this.addr, align 8
  %this1 = load ptr, ptr %this.addr, align 8
  %px = getelementptr inbounds %"class.boost::intrusive_ptr", ptr %this1, i32 0, i32 0
  %0 = load ptr, ptr %px, align 8
  ret ptr %0
}

; Function Attrs: mustprogress uwtable
define linkonce_odr noundef i64 @_ZNK8facebook5velox10BaseVector12retainedSizeEv(ptr noundef nonnull align 8 dereferenceable(99) %this) unnamed_addr #0 comdat align 2 {
entry:
  %this.addr = alloca ptr, align 8
  store ptr %this, ptr %this.addr, align 8
  %this1 = load ptr, ptr %this.addr, align 8
  %nulls_ = getelementptr inbounds %"class.facebook::velox::BaseVector", ptr %this1, i32 0, i32 5
  %call = call noundef zeroext i1 @_ZNK5boost13intrusive_ptrIN8facebook5velox6BufferEEcvbEv(ptr noundef nonnull align 8 dereferenceable(8) %nulls_) #18
  br i1 %call, label %cond.true, label %cond.false

cond.true:                                        ; preds = %entry
  %nulls_2 = getelementptr inbounds %"class.facebook::velox::BaseVector", ptr %this1, i32 0, i32 5
  %call3 = call noundef ptr @_ZNK5boost13intrusive_ptrIN8facebook5velox6BufferEEptEv(ptr noundef nonnull align 8 dereferenceable(8) %nulls_2) #18
  %call4 = call noundef i64 @_ZNK8facebook5velox6Buffer8capacityEv(ptr noundef nonnull align 8 dereferenceable(64) %call3)
  br label %cond.end

cond.false:                                       ; preds = %entry
  br label %cond.end

cond.end:                                         ; preds = %cond.false, %cond.true
  %cond = phi i64 [ %call4, %cond.true ], [ 0, %cond.false ]
  ret i64 %cond
}

; Function Attrs: mustprogress uwtable
define noundef i64 @_ZNK8facebook5velox11ArrayVector16estimateFlatSizeEv(ptr noundef nonnull align 8 dereferenceable(152) %this) unnamed_addr #0 align 2 {
entry:
  %this.addr = alloca ptr, align 8
  store ptr %this, ptr %this.addr, align 8
  %this1 = load ptr, ptr %this.addr, align 8
  %call = call noundef i64 @_ZNK8facebook5velox10BaseVector12retainedSizeEv(ptr noundef nonnull align 8 dereferenceable(99) %this1)
  %offsets_ = getelementptr inbounds %"struct.facebook::velox::ArrayVectorBase", ptr %this1, i32 0, i32 1
  %call2 = call noundef ptr @_ZNK5boost13intrusive_ptrIN8facebook5velox6BufferEEptEv(ptr noundef nonnull align 8 dereferenceable(8) %offsets_) #18
  %call3 = call noundef i64 @_ZNK8facebook5velox6Buffer8capacityEv(ptr noundef nonnull align 8 dereferenceable(64) %call2)
  %add = add i64 %call, %call3
  %sizes_ = getelementptr inbounds %"struct.facebook::velox::ArrayVectorBase", ptr %this1, i32 0, i32 3
  %call4 = call noundef ptr @_ZNK5boost13intrusive_ptrIN8facebook5velox6BufferEEptEv(ptr noundef nonnull align 8 dereferenceable(8) %sizes_) #18
  %call5 = call noundef i64 @_ZNK8facebook5velox6Buffer8capacityEv(ptr noundef nonnull align 8 dereferenceable(64) %call4)
  %add6 = add i64 %add, %call5
  %elements_ = getelementptr inbounds %"class.facebook::velox::ArrayVector", ptr %this1, i32 0, i32 1
  %call7 = call noundef ptr @_ZNKSt19__shared_ptr_accessIN8facebook5velox10BaseVectorELN9__gnu_cxx12_Lock_policyE2ELb0ELb0EEptEv(ptr noundef nonnull align 1 dereferenceable(1) %elements_) #18
  %vtable = load ptr, ptr %call7, align 8
  %vfn = getelementptr inbounds ptr, ptr %vtable, i64 38
  %0 = load ptr, ptr %vfn, align 8
  %call8 = call noundef i64 %0(ptr noundef nonnull align 8 dereferenceable(99) %call7)
  %add9 = add i64 %add6, %call8
  ret i64 %add9
}