; Function Attrs: mustprogress uwtable
define noundef i64 @_ZNK8facebook5velox11ArrayVector16estimateFlatSizeEv(ptr nocapture noundef nonnull readonly align 8 dereferenceable(152) %this) unnamed_addr #0 align 2 {
entry:
  %nulls_.i = getelementptr inbounds i8, ptr %this, i64 32
  %0 = load ptr, ptr %nulls_.i, align 8
  %cmp.i.not.i = icmp eq ptr %0, null
  br i1 %cmp.i.not.i, label %_ZNK8facebook5velox10BaseVector12retainedSizeEv.exit, label %cond.true.i

cond.true.i:                                      ; preds = %entry
  %capacity_.i.i = getelementptr inbounds i8, ptr %0, i64 32
  %1 = load i64, ptr %capacity_.i.i, align 8
  br label %_ZNK8facebook5velox10BaseVector12retainedSizeEv.exit

_ZNK8facebook5velox10BaseVector12retainedSizeEv.exit: ; preds = %entry, %cond.true.i
  %cond.i = phi i64 [ %1, %cond.true.i ], [ 0, %entry ]
  %offsets_ = getelementptr inbounds i8, ptr %this, i64 104
  %2 = load ptr, ptr %offsets_, align 8
  %capacity_.i = getelementptr inbounds i8, ptr %2, i64 32
  %3 = load i64, ptr %capacity_.i, align 8
  %add = add i64 %3, %cond.i
  %sizes_ = getelementptr inbounds i8, ptr %this, i64 120
  %4 = load ptr, ptr %sizes_, align 8
  %capacity_.i1 = getelementptr inbounds i8, ptr %4, i64 32
  %5 = load i64, ptr %capacity_.i1, align 8
  %add6 = add i64 %add, %5
  %elements_ = getelementptr inbounds i8, ptr %this, i64 136
  %6 = load ptr, ptr %elements_, align 8
  %vtable = load ptr, ptr %6, align 8
  %vfn = getelementptr inbounds i8, ptr %vtable, i64 304
  %7 = load ptr, ptr %vfn, align 8
  %call8 = tail call noundef i64 %7(ptr noundef nonnull align 8 dereferenceable(99) %6)
  %add9 = add i64 %add6, %call8
  ret i64 %add9
}